; Function Attrs: nounwind uwtable
define ptr @CONF_get_section(ptr noundef %0, ptr noundef %1) local_unnamed_addr #0 {
  %3 = alloca %struct.conf_st, align 8
  %4 = icmp eq ptr %0, null
  br i1 %4, label %19, label %5

5:                                                ; preds = %2
  call void @llvm.lifetime.start.p0(i64 48, ptr nonnull %3) #15
  %6 = load ptr, ptr @default_CONF_method, align 8, !tbaa !3
  %7 = icmp eq ptr %6, null
  br i1 %7, label %8, label %CONF_set_nconf.exit

8:                                                ; preds = %5
  %9 = tail call ptr @NCONF_default() #15
  store ptr %9, ptr @default_CONF_method, align 8, !tbaa !3
  br label %CONF_set_nconf.exit

CONF_set_nconf.exit:                              ; preds = %5, %8
  %10 = phi ptr [ %9, %8 ], [ %6, %5 ]
  %11 = getelementptr inbounds nuw i8, ptr %10, i64 16
  %12 = load ptr, ptr %11, align 8, !tbaa !8
  %13 = call i32 %12(ptr noundef nonnull %3) #15
  %14 = getelementptr inbounds nuw i8, ptr %3, i64 16
  store ptr %0, ptr %14, align 8, !tbaa !11
  %15 = icmp eq ptr %1, null
  br i1 %15, label %16, label %17

16:                                               ; preds = %CONF_set_nconf.exit
  call void @ERR_new() #15
  call void @ERR_set_debug(ptr noundef nonnull @.str.1, i32 noundef 294, ptr noundef nonnull @__func__.NCONF_get_section) #15
  call void (i32, i32, ptr, ...) @ERR_set_error(i32 noundef 14, i32 noundef 107, ptr noundef null) #15
  br label %NCONF_get_section.exit

17:                                               ; preds = %CONF_set_nconf.exit
  %18 = call ptr @_CONF_get_section_values(ptr noundef nonnull %3, ptr noundef nonnull %1) #15
  br label %NCONF_get_section.exit

NCONF_get_section.exit:                           ; preds = %16, %17
  %.0.i = phi ptr [ null, %16 ], [ %18, %17 ]
  call void @llvm.lifetime.end.p0(i64 48, ptr nonnull %3) #15
  br label %19

19:                                               ; preds = %2, %NCONF_get_section.exit
  %.0 = phi ptr [ %.0.i, %NCONF_get_section.exit ], [ null, %2 ]
  ret ptr %.0
}